target datalayout = "e-m:e-p270:32:32-p271:32:32-p272:64:64-i64:64-i128:128-f80:128-n8:16:32:64-S128"
target triple = "x86_64-pc-linux-gnu"

%struct.snort_session_t = type { i8, i8, i32, i32, i32, i32, ptr, ptr, ptr, ptr }
%struct.stat = type { i64, i64, i64, i32, i32, i32, i32, i64, i64, i64, i64, %struct.timespec, %struct.timespec, %struct.timespec, [3 x i64] }
%struct.timespec = type { i64, i64 }

@proto_snort = internal global i32 0, align 4
@pref_snort_alerts_source = internal global i32 0, align 4
@pref_snort_binary_filename = internal global ptr @.str.108, align 8
@pref_snort_config_filename = internal global ptr @.str.109, align 8
@snort_alert_in_reassembled_frame = internal global i8 0, align 1
@snort_ignore_checksum_errors = internal global i8 1, align 1
@snort_handle = internal global ptr null, align 8
@current_session = internal global %struct.snort_session_t zeroinitializer, align 8
@g_snort_config = internal global ptr null, align 8
@.str.143 = private unnamed_addr constant [19 x i8] c"tcp.reassembled_in\00", align 1
@.str.145 = private unnamed_addr constant [3 x i8] c"-c\00", align 1
@.str.146 = private unnamed_addr constant [3 x i8] c"-r\00", align 1
@.str.147 = private unnamed_addr constant [2 x i8] c"-\00", align 1
@.str.148 = private unnamed_addr constant [3 x i8] c"-N\00", align 1
@.str.149 = private unnamed_addr constant [3 x i8] c"-A\00", align 1
@.str.150 = private unnamed_addr constant [8 x i8] c"console\00", align 1
@.str.151 = private unnamed_addr constant [3 x i8] c"-q\00", align 1
@.str.152 = private unnamed_addr constant [3 x i8] c"-y\00", align 1
@.str.153 = private unnamed_addr constant [3 x i8] c"-k\00", align 1
@.str.154 = private unnamed_addr constant [5 x i8] c"none\00", align 1
@snort_config_ok = internal global i8 1, align 1
@.str.155 = private unnamed_addr constant [62 x i8] c"Snort dissector: Can't run snort - executable '%s' not found\0A\00", align 1
@.str.156 = private unnamed_addr constant [63 x i8] c"Snort dissector: Can't run snort - config file '%s' not found\0A\00", align 1
@.str.157 = private unnamed_addr constant [54 x i8] c"Snort dissector: Snort binary '%s' is not executable\0A\00", align 1

; Function Attrs: null_pointer_is_valid sspstrong uwtable
define internal void @snort_start() #1 {
  %1 = alloca ptr, align 8
  %2 = alloca [13 x ptr], align 16
  %3 = alloca ptr, align 8
  %4 = alloca i32, align 4
  %5 = alloca i32, align 4
  %6 = alloca %struct.stat, align 8
  %7 = alloca %struct.stat, align 8
  call void @llvm.lifetime.start.p0(i64 8, ptr %1) #15
  call void @llvm.lifetime.start.p0(i64 104, ptr %2) #15
  %8 = load ptr, ptr @pref_snort_binary_filename, align 8
  store ptr %8, ptr %2, align 8
  %9 = getelementptr inbounds ptr, ptr %2, i64 1
  store ptr @.str.145, ptr %9, align 8
  %10 = getelementptr inbounds ptr, ptr %2, i64 2
  %11 = load ptr, ptr @pref_snort_config_filename, align 8
  store ptr %11, ptr %10, align 8
  %12 = getelementptr inbounds ptr, ptr %2, i64 3
  store ptr @.str.146, ptr %12, align 8
  %13 = getelementptr inbounds ptr, ptr %2, i64 4
  store ptr @.str.147, ptr %13, align 8
  %14 = getelementptr inbounds ptr, ptr %2, i64 5
  store ptr @.str.148, ptr %14, align 8
  %15 = getelementptr inbounds ptr, ptr %2, i64 6
  store ptr @.str.149, ptr %15, align 8
  %16 = getelementptr inbounds ptr, ptr %2, i64 7
  store ptr @.str.150, ptr %16, align 8
  %17 = getelementptr inbounds ptr, ptr %2, i64 8
  store ptr @.str.151, ptr %17, align 8
  %18 = getelementptr inbounds ptr, ptr %2, i64 9
  store ptr @.str.152, ptr %18, align 8
  %19 = getelementptr inbounds ptr, ptr %2, i64 10
  store ptr @.str.153, ptr %19, align 8
  %20 = getelementptr inbounds ptr, ptr %2, i64 11
  store ptr @.str.154, ptr %20, align 8
  %21 = getelementptr inbounds ptr, ptr %2, i64 12
  store ptr null, ptr %21, align 8
  %22 = load i8, ptr @snort_ignore_checksum_errors, align 1, !range !6, !noundef !7
  %23 = trunc i8 %22 to i1
  br i1 %23, label %26, label %24

24:                                               ; preds = %0
  %25 = getelementptr [13 x ptr], ptr %2, i64 0, i64 10
  store ptr null, ptr %25, align 16
  br label %26

26:                                               ; preds = %24, %0
  %27 = load i8, ptr @snort_alert_in_reassembled_frame, align 1, !range !6, !noundef !7
  %28 = trunc i8 %27 to i1
  br i1 %28, label %29, label %36

29:                                               ; preds = %26
  call void @llvm.lifetime.start.p0(i64 8, ptr %3) #15
  %30 = call ptr @g_array_new(i32 noundef 0, i32 noundef 0, i32 noundef 4)
  store ptr %30, ptr %3, align 8
  call void @llvm.lifetime.start.p0(i64 4, ptr %4) #15
  %31 = call i32 @proto_registrar_get_id_byname(ptr noundef @.str.143)
  store i32 %31, ptr %4, align 4
  %32 = load ptr, ptr %3, align 8
  %33 = call ptr @g_array_append_vals(ptr noundef %32, ptr noundef %4, i32 noundef 1)
  %34 = load ptr, ptr @snort_handle, align 8
  %35 = load ptr, ptr %3, align 8
  call void @set_postdissector_wanted_hfids(ptr noundef %34, ptr noundef %35)
  call void @llvm.lifetime.end.p0(i64 4, ptr %4) #15
  call void @llvm.lifetime.end.p0(i64 8, ptr %3) #15
  br label %36

36:                                               ; preds = %29, %26
  %37 = load i32, ptr @pref_snort_alerts_source, align 4
  %38 = icmp eq i32 %37, 0
  br i1 %38, label %43, label %39

39:                                               ; preds = %36
  %40 = load i32, ptr @proto_snort, align 4
  %41 = call ptr @find_protocol_by_id(i32 noundef %40)
  %42 = call zeroext i1 @proto_is_protocol_enabled(ptr noundef %41)
  br i1 %42, label %44, label %43

43:                                               ; preds = %39, %36
  store i32 1, ptr %5, align 4
  br label %117

44:                                               ; preds = %39
  %45 = call ptr @wmem_epan_scope()
  %46 = call ptr @wmem_file_scope()
  %47 = call noalias ptr @wmem_tree_new_autoreset(ptr noundef %45, ptr noundef %46)
  store ptr %47, ptr getelementptr inbounds nuw (%struct.snort_session_t, ptr @current_session, i32 0, i32 9), align 8
  %48 = load ptr, ptr @g_snort_config, align 8
  %49 = icmp ne ptr %48, null
  br i1 %49, label %50, label %51

50:                                               ; preds = %44
  call void @delete_config(ptr noundef @g_snort_config)
  br label %51

51:                                               ; preds = %50, %44
  %52 = load ptr, ptr @pref_snort_config_filename, align 8
  call void @create_config(ptr noundef @g_snort_config, ptr noundef %52)
  %53 = load i32, ptr @pref_snort_alerts_source, align 4
  %54 = icmp eq i32 %53, 2
  br i1 %54, label %55, label %56

55:                                               ; preds = %51
  store i32 1, ptr %5, align 4
  br label %117

56:                                               ; preds = %51
  %57 = load i8, ptr @current_session, align 8, !range !6, !noundef !7
  %58 = trunc i8 %57 to i1
  br i1 %58, label %59, label %60

59:                                               ; preds = %56
  store i32 1, ptr %5, align 4
  br label %117

60:                                               ; preds = %56
  %61 = load ptr, ptr @g_snort_config, align 8
  call void @reset_global_rule_stats(ptr noundef %61)
  %62 = load i8, ptr @snort_config_ok, align 1, !range !6, !noundef !7
  %63 = trunc i8 %62 to i1
  br i1 %63, label %65, label %64

64:                                               ; preds = %60
  store i32 1, ptr %5, align 4
  br label %117

65:                                               ; preds = %60
  call void @llvm.lifetime.start.p0(i64 144, ptr %6) #15
  call void @llvm.lifetime.start.p0(i64 144, ptr %7) #15
  %66 = load ptr, ptr @pref_snort_binary_filename, align 8
  %67 = call i32 @stat(ptr noundef %66, ptr noundef %6) #15
  %68 = icmp ne i32 %67, 0
  br i1 %68, label %69, label %74

69:                                               ; preds = %65
  br label %70

70:                                               ; preds = %69
  br label %71

71:                                               ; preds = %70
  br label %72

72:                                               ; preds = %71
  %73 = load ptr, ptr @pref_snort_binary_filename, align 8
  call void (ptr, ...) @report_failure(ptr noundef @.str.155, ptr noundef %73)
  store i32 1, ptr %5, align 4
  br label %116

74:                                               ; preds = %65
  %75 = load ptr, ptr @pref_snort_config_filename, align 8
  %76 = call i32 @stat(ptr noundef %75, ptr noundef %7) #15
  %77 = icmp ne i32 %76, 0
  br i1 %77, label %78, label %83

78:                                               ; preds = %74
  br label %79

79:                                               ; preds = %78
  br label %80

80:                                               ; preds = %79
  br label %81

81:                                               ; preds = %80
  %82 = load ptr, ptr @pref_snort_config_filename, align 8
  call void (ptr, ...) @report_failure(ptr noundef @.str.156, ptr noundef %82)
  store i32 1, ptr %5, align 4
  br label %116

83:                                               ; preds = %74
  %84 = getelementptr inbounds nuw %struct.stat, ptr %6, i32 0, i32 3
  %85 = load i32, ptr %84, align 8
  %86 = and i32 %85, 64
  %87 = icmp ne i32 %86, 0
  br i1 %87, label %93, label %88

88:                                               ; preds = %83
  br label %89

89:                                               ; preds = %88
  br label %90

90:                                               ; preds = %89
  br label %91

91:                                               ; preds = %90
  %92 = load ptr, ptr @pref_snort_binary_filename, align 8
  call void (ptr, ...) @report_failure(ptr noundef @.str.157, ptr noundef %92)
  store i32 1, ptr %5, align 4
  br label %116

93:                                               ; preds = %83
  br label %94

94:                                               ; preds = %93
  br label %95

95:                                               ; preds = %94
  br label %96

96:                                               ; preds = %95
  %97 = getelementptr inbounds [13 x ptr], ptr %2, i64 0, i64 0
  %98 = call i32 @g_spawn_async_with_pipes(ptr noundef null, ptr noundef %97, ptr noundef null, i32 noundef 2, ptr noundef null, ptr noundef null, ptr noundef getelementptr inbounds nuw (%struct.snort_session_t, ptr @current_session, i32 0, i32 2), ptr noundef getelementptr inbounds nuw (%struct.snort_session_t, ptr @current_session, i32 0, i32 3), ptr noundef getelementptr inbounds nuw (%struct.snort_session_t, ptr @current_session, i32 0, i32 4), ptr noundef getelementptr inbounds nuw (%struct.snort_session_t, ptr @current_session, i32 0, i32 5), ptr noundef null)
  %99 = icmp ne i32 %98, 0
  br i1 %99, label %101, label %100

100:                                              ; preds = %96
  store i8 0, ptr @current_session, align 8
  store i8 0, ptr getelementptr inbounds nuw (%struct.snort_session_t, ptr @current_session, i32 0, i32 1), align 1
  store i32 1, ptr %5, align 4
  br label %116

101:                                              ; preds = %96
  store i8 1, ptr @current_session, align 8
  store i8 1, ptr getelementptr inbounds nuw (%struct.snort_session_t, ptr @current_session, i32 0, i32 1), align 1
  br label %102

102:                                              ; preds = %101
  %103 = load i32, ptr getelementptr inbounds nuw (%struct.snort_session_t, ptr @current_session, i32 0, i32 2), align 4
  %104 = call i32 @g_child_watch_add(i32 noundef %103, ptr noundef @snort_reaper, ptr noundef @current_session)
  %105 = load i32, ptr getelementptr inbounds nuw (%struct.snort_session_t, ptr @current_session, i32 0, i32 4), align 4
  %106 = call ptr @g_io_channel_unix_new(i32 noundef %105)
  store ptr %106, ptr %1, align 8
  %107 = load ptr, ptr %1, align 8
  store ptr %107, ptr getelementptr inbounds nuw (%struct.snort_session_t, ptr @current_session, i32 0, i32 8), align 8
  %108 = load ptr, ptr %1, align 8
  %109 = call i32 @g_io_channel_set_encoding(ptr noundef %108, ptr noundef null, ptr noundef null)
  %110 = load ptr, ptr %1, align 8
  call void @g_io_channel_set_buffered(ptr noundef %110, i32 noundef 0)
  %111 = load ptr, ptr %1, align 8
  %112 = call i32 @g_io_channel_set_flags(ptr noundef %111, i32 noundef 2, ptr noundef null)
  %113 = load ptr, ptr %1, align 8
  call void @g_io_channel_set_buffer_size(ptr noundef %113, i64 noundef 256000)
  store ptr null, ptr getelementptr inbounds nuw (%struct.snort_session_t, ptr @current_session, i32 0, i32 6), align 8
  %114 = load ptr, ptr %1, align 8
  %115 = call i32 @g_io_add_watch_full(ptr noundef %114, i32 noundef -100, i32 noundef 25, ptr noundef @snort_fast_output, ptr noundef @current_session, ptr noundef null)
  store i8 1, ptr getelementptr inbounds nuw (%struct.snort_session_t, ptr @current_session, i32 0, i32 1), align 1
  store i32 0, ptr %5, align 4
  br label %116

116:                                              ; preds = %102, %100, %91, %81, %72
  call void @llvm.lifetime.end.p0(i64 144, ptr %7) #15
  call void @llvm.lifetime.end.p0(i64 144, ptr %6) #15
  br label %117

117:                                              ; preds = %116, %64, %59, %55, %43
  call void @llvm.lifetime.end.p0(i64 104, ptr %2) #15
  call void @llvm.lifetime.end.p0(i64 8, ptr %1) #15
  %118 = load i32, ptr %5, align 4
  switch i32 %118, label %120 [
    i32 0, label %119
    i32 1, label %119
  ]

119:                                              ; preds = %117, %117
  ret void

120:                                              ; preds = %117
  unreachable
}