; Function Attrs: null_pointer_is_valid sspstrong uwtable
define internal void @snort_start() #1 {
  %1 = alloca [13 x ptr], align 16
  %2 = alloca i32, align 4
  %3 = alloca %struct.stat, align 8
  %4 = alloca %struct.stat, align 8
  call void @llvm.lifetime.start.p0(i64 104, ptr nonnull %1) #13
  %5 = load ptr, ptr @pref_snort_binary_filename, align 8
  store ptr %5, ptr %1, align 16
  %6 = getelementptr inbounds nuw i8, ptr %1, i64 8
  store ptr @.str.145, ptr %6, align 8
  %7 = getelementptr inbounds nuw i8, ptr %1, i64 16
  %8 = load ptr, ptr @pref_snort_config_filename, align 8
  store ptr %8, ptr %7, align 16
  %9 = getelementptr inbounds nuw i8, ptr %1, i64 24
  store ptr @.str.146, ptr %9, align 8
  %10 = getelementptr inbounds nuw i8, ptr %1, i64 32
  store ptr @.str.147, ptr %10, align 16
  %11 = getelementptr inbounds nuw i8, ptr %1, i64 40
  store ptr @.str.148, ptr %11, align 8
  %12 = getelementptr inbounds nuw i8, ptr %1, i64 48
  store ptr @.str.149, ptr %12, align 16
  %13 = getelementptr inbounds nuw i8, ptr %1, i64 56
  store ptr @.str.150, ptr %13, align 8
  %14 = getelementptr inbounds nuw i8, ptr %1, i64 64
  store ptr @.str.151, ptr %14, align 16
  %15 = getelementptr inbounds nuw i8, ptr %1, i64 72
  store ptr @.str.152, ptr %15, align 8
  %16 = getelementptr inbounds nuw i8, ptr %1, i64 80
  store ptr @.str.153, ptr %16, align 16
  %17 = getelementptr inbounds nuw i8, ptr %1, i64 88
  store ptr @.str.154, ptr %17, align 8
  %18 = getelementptr inbounds nuw i8, ptr %1, i64 96
  store ptr null, ptr %18, align 16
  %19 = load i8, ptr @snort_ignore_checksum_errors, align 1, !range !8, !noundef !9
  %20 = trunc nuw i8 %19 to i1
  br i1 %20, label %22, label %21

21:                                               ; preds = %0
  store ptr null, ptr %16, align 16
  br label %22

22:                                               ; preds = %21, %0
  %23 = load i8, ptr @snort_alert_in_reassembled_frame, align 1, !range !8, !noundef !9
  %24 = trunc nuw i8 %23 to i1
  br i1 %24, label %25, label %30

25:                                               ; preds = %22
  %26 = tail call ptr @g_array_new(i32 noundef 0, i32 noundef 0, i32 noundef 4)
  call void @llvm.lifetime.start.p0(i64 4, ptr nonnull %2) #13
  %27 = tail call i32 @proto_registrar_get_id_byname(ptr noundef nonnull @.str.143)
  store i32 %27, ptr %2, align 4
  %28 = call ptr @g_array_append_vals(ptr noundef %26, ptr noundef nonnull %2, i32 noundef 1)
  %29 = load ptr, ptr @snort_handle, align 8
  call void @set_postdissector_wanted_hfids(ptr noundef %29, ptr noundef %26)
  call void @llvm.lifetime.end.p0(i64 4, ptr nonnull %2) #13
  br label %30

30:                                               ; preds = %25, %22
  %31 = load i32, ptr @pref_snort_alerts_source, align 4
  %32 = icmp eq i32 %31, 0
  br i1 %32, label %79, label %33

33:                                               ; preds = %30
  %34 = load i32, ptr @proto_snort, align 4
  %35 = call ptr @find_protocol_by_id(i32 noundef %34)
  %36 = call zeroext i1 @proto_is_protocol_enabled(ptr noundef %35)
  br i1 %36, label %37, label %79

37:                                               ; preds = %33
  %38 = call ptr @wmem_epan_scope()
  %39 = call ptr @wmem_file_scope()
  %40 = call noalias ptr @wmem_tree_new_autoreset(ptr noundef %38, ptr noundef %39)
  store ptr %40, ptr getelementptr inbounds nuw (i8, ptr @current_session, i64 48), align 8
  %41 = load ptr, ptr @g_snort_config, align 8
  %.not = icmp eq ptr %41, null
  br i1 %.not, label %43, label %42

42:                                               ; preds = %37
  call void @delete_config(ptr noundef nonnull @g_snort_config)
  br label %43

43:                                               ; preds = %42, %37
  %44 = load ptr, ptr @pref_snort_config_filename, align 8
  call void @create_config(ptr noundef nonnull @g_snort_config, ptr noundef %44)
  %45 = load i32, ptr @pref_snort_alerts_source, align 4
  %46 = icmp eq i32 %45, 2
  br i1 %46, label %79, label %47

47:                                               ; preds = %43
  %48 = load i8, ptr @current_session, align 8, !range !8, !noundef !9
  %49 = trunc nuw i8 %48 to i1
  br i1 %49, label %79, label %50

50:                                               ; preds = %47
  %51 = load ptr, ptr @g_snort_config, align 8
  call void @reset_global_rule_stats(ptr noundef %51)
  call void @llvm.lifetime.start.p0(i64 144, ptr nonnull %3) #13
  call void @llvm.lifetime.start.p0(i64 144, ptr nonnull %4) #13
  %52 = load ptr, ptr @pref_snort_binary_filename, align 8
  %53 = call i32 @stat(ptr noundef %52, ptr noundef nonnull %3) #13
  %.not8 = icmp eq i32 %53, 0
  br i1 %.not8, label %56, label %54

54:                                               ; preds = %50
  %55 = load ptr, ptr @pref_snort_binary_filename, align 8
  call void (ptr, ...) @report_failure(ptr noundef nonnull @.str.155, ptr noundef %55)
  br label %78

56:                                               ; preds = %50
  %57 = load ptr, ptr @pref_snort_config_filename, align 8
  %58 = call i32 @stat(ptr noundef %57, ptr noundef nonnull %4) #13
  %.not9 = icmp eq i32 %58, 0
  br i1 %.not9, label %61, label %59

59:                                               ; preds = %56
  %60 = load ptr, ptr @pref_snort_config_filename, align 8
  call void (ptr, ...) @report_failure(ptr noundef nonnull @.str.156, ptr noundef %60)
  br label %78

61:                                               ; preds = %56
  %62 = getelementptr inbounds nuw i8, ptr %3, i64 24
  %63 = load i32, ptr %62, align 8
  %64 = and i32 %63, 64
  %.not10 = icmp eq i32 %64, 0
  br i1 %.not10, label %65, label %67

65:                                               ; preds = %61
  %66 = load ptr, ptr @pref_snort_binary_filename, align 8
  call void (ptr, ...) @report_failure(ptr noundef nonnull @.str.157, ptr noundef %66)
  br label %78

67:                                               ; preds = %61
  %68 = call i32 @g_spawn_async_with_pipes(ptr noundef null, ptr noundef nonnull %1, ptr noundef null, i32 noundef 2, ptr noundef null, ptr noundef null, ptr noundef nonnull getelementptr inbounds nuw (i8, ptr @current_session, i64 4), ptr noundef nonnull getelementptr inbounds nuw (i8, ptr @current_session, i64 8), ptr noundef nonnull getelementptr inbounds nuw (i8, ptr @current_session, i64 12), ptr noundef nonnull getelementptr inbounds nuw (i8, ptr @current_session, i64 16), ptr noundef null)
  %.not11 = icmp eq i32 %68, 0
  br i1 %.not11, label %69, label %70

69:                                               ; preds = %67
  store i8 0, ptr @current_session, align 8
  store i8 0, ptr getelementptr inbounds nuw (i8, ptr @current_session, i64 1), align 1
  br label %78

70:                                               ; preds = %67
  store i8 1, ptr @current_session, align 8
  store i8 1, ptr getelementptr inbounds nuw (i8, ptr @current_session, i64 1), align 1
  %71 = load i32, ptr getelementptr inbounds nuw (i8, ptr @current_session, i64 4), align 4
  %72 = call i32 @g_child_watch_add(i32 noundef %71, ptr noundef nonnull @snort_reaper, ptr noundef nonnull @current_session)
  %73 = load i32, ptr getelementptr inbounds nuw (i8, ptr @current_session, i64 12), align 4
  %74 = call ptr @g_io_channel_unix_new(i32 noundef %73)
  store ptr %74, ptr getelementptr inbounds nuw (i8, ptr @current_session, i64 40), align 8
  %75 = call i32 @g_io_channel_set_encoding(ptr noundef %74, ptr noundef null, ptr noundef null)
  call void @g_io_channel_set_buffered(ptr noundef %74, i32 noundef 0)
  %76 = call i32 @g_io_channel_set_flags(ptr noundef %74, i32 noundef 2, ptr noundef null)
  call void @g_io_channel_set_buffer_size(ptr noundef %74, i64 noundef 256000)
  store ptr null, ptr getelementptr inbounds nuw (i8, ptr @current_session, i64 24), align 8
  %77 = call i32 @g_io_add_watch_full(ptr noundef %74, i32 noundef -100, i32 noundef 25, ptr noundef nonnull @snort_fast_output, ptr noundef nonnull @current_session, ptr noundef null)
  store i8 1, ptr getelementptr inbounds nuw (i8, ptr @current_session, i64 1), align 1
  br label %78

78:                                               ; preds = %70, %69, %65, %59, %54
  call void @llvm.lifetime.end.p0(i64 144, ptr nonnull %4) #13
  call void @llvm.lifetime.end.p0(i64 144, ptr nonnull %3) #13
  br label %79

79:                                               ; preds = %47, %43, %30, %33, %78
  call void @llvm.lifetime.end.p0(i64 104, ptr nonnull %1) #13
  ret void
}